; Function Attrs: cold mustprogress noreturn uwtable
define noundef i64 @_Z18logged_rv32e_sraiwP11processor_t6insn_tm(ptr noundef readnone captures(none) %0, i64 %1, i64 noundef %2) local_unnamed_addr #3 personality ptr @__gxx_personality_v0 {
  %4 = tail call ptr @__cxa_allocate_exception(i64 32) #16
  %5 = getelementptr inbounds nuw i8, ptr %4, i64 8
  store i64 2, ptr %5, align 8, !tbaa !3
  %6 = getelementptr inbounds nuw i8, ptr %4, i64 16
  store i8 0, ptr %6, align 8, !tbaa !8
  %7 = getelementptr inbounds nuw i8, ptr %4, i64 24
  store i64 %1, ptr %7, align 8, !tbaa !11
  store ptr getelementptr inbounds nuw inrange(-16, 80) (i8, ptr @_ZTV24trap_illegal_instruction, i64 16), ptr %4, align 8, !tbaa !12
  tail call void @__cxa_throw(ptr nonnull %4, ptr nonnull @_ZTI24trap_illegal_instruction, ptr nonnull @_ZN6trap_tD2Ev) #17
  unreachable
}